; ModuleID = '8/863.c'
source_filename = "8/863.c"
target datalayout = "e-m:e-p270:32:32-p271:32:32-p272:64:64-i64:64-f80:128-n8:16:32:64-S128"
target triple = "x86_64-pc-linux-gnu"

@.str = private unnamed_addr constant [3 x i8] c"%d\00", align 1
@.str.1 = private unnamed_addr constant [4 x i8] c" %d\00", align 1
@.str.2 = private unnamed_addr constant [5 x i8] c"%d%d\00", align 1

; Function Attrs: noinline nounwind uwtable
define dso_local void @mysort(i32* %0, i32 %1) #0 {
  %3 = alloca i32*, align 8
  %4 = alloca i32, align 4
  %5 = alloca i32, align 4
  %6 = alloca i32, align 4
  %7 = alloca i32, align 4
  store i32* %0, i32** %3, align 8
  store i32 %1, i32* %4, align 4
  store i32 0, i32* %6, align 4
  br label %8

8:                                                ; preds = %56, %2
  %9 = load i32, i32* %6, align 4
  %10 = load i32, i32* %4, align 4
  %11 = icmp slt i32 %9, %10
  br i1 %11, label %12, label %59

12:                                               ; preds = %8
  %13 = load i32, i32* %6, align 4
  %14 = add nsw i32 %13, 1
  store i32 %14, i32* %5, align 4
  br label %15

15:                                               ; preds = %52, %12
  %16 = load i32, i32* %5, align 4
  %17 = load i32, i32* %4, align 4
  %18 = icmp slt i32 %16, %17
  br i1 %18, label %19, label %55

19:                                               ; preds = %15
  %20 = load i32*, i32** %3, align 8
  %21 = load i32, i32* %6, align 4
  %22 = sext i32 %21 to i64
  %23 = getelementptr inbounds i32, i32* %20, i64 %22
  %24 = load i32, i32* %23, align 4
  %25 = load i32*, i32** %3, align 8
  %26 = load i32, i32* %5, align 4
  %27 = sext i32 %26 to i64
  %28 = getelementptr inbounds i32, i32* %25, i64 %27
  %29 = load i32, i32* %28, align 4
  %30 = icmp sgt i32 %24, %29
  br i1 %30, label %31, label %51

31:                                               ; preds = %19
  %32 = load i32*, i32** %3, align 8
  %33 = load i32, i32* %6, align 4
  %34 = sext i32 %33 to i64
  %35 = getelementptr inbounds i32, i32* %32, i64 %34
  %36 = load i32, i32* %35, align 4
  store i32 %36, i32* %7, align 4
  %37 = load i32*, i32** %3, align 8
  %38 = load i32, i32* %5, align 4
  %39 = sext i32 %38 to i64
  %40 = getelementptr inbounds i32, i32* %37, i64 %39
  %41 = load i32, i32* %40, align 4
  %42 = load i32*, i32** %3, align 8
  %43 = load i32, i32* %6, align 4
  %44 = sext i32 %43 to i64
  %45 = getelementptr inbounds i32, i32* %42, i64 %44
  store i32 %41, i32* %45, align 4
  %46 = load i32, i32* %7, align 4
  %47 = load i32*, i32** %3, align 8
  %48 = load i32, i32* %5, align 4
  %49 = sext i32 %48 to i64
  %50 = getelementptr inbounds i32, i32* %47, i64 %49
  store i32 %46, i32* %50, align 4
  br label %51

51:                                               ; preds = %31, %19
  br label %52

52:                                               ; preds = %51
  %53 = load i32, i32* %5, align 4
  %54 = add nsw i32 %53, 1
  store i32 %54, i32* %5, align 4
  br label %15

55:                                               ; preds = %15
  br label %56

56:                                               ; preds = %55
  %57 = load i32, i32* %6, align 4
  %58 = add nsw i32 %57, 1
  store i32 %58, i32* %6, align 4
  br label %8

59:                                               ; preds = %8
  ret void
}

; Function Attrs: noinline nounwind uwtable
define dso_local void @merge(i32* %0, i32 %1, i32* %2, i32 %3) #0 {
  %5 = alloca i32*, align 8
  %6 = alloca i32, align 4
  %7 = alloca i32*, align 8
  %8 = alloca i32, align 4
  %9 = alloca i32, align 4
  store i32* %0, i32** %5, align 8
  store i32 %1, i32* %6, align 4
  store i32* %2, i32** %7, align 8
  store i32 %3, i32* %8, align 4
  %10 = load i32*, i32** %5, align 8
  %11 = getelementptr inbounds i32, i32* %10, i64 0
  %12 = load i32, i32* %11, align 4
  %13 = call i32 (i8*, ...) @printf(i8* getelementptr inbounds ([3 x i8], [3 x i8]* @.str, i64 0, i64 0), i32 %12)
  store i32 1, i32* %9, align 4
  br label %14

14:                                               ; preds = %25, %4
  %15 = load i32, i32* %9, align 4
  %16 = load i32, i32* %6, align 4
  %17 = icmp slt i32 %15, %16
  br i1 %17, label %18, label %28

18:                                               ; preds = %14
  %19 = load i32*, i32** %5, align 8
  %20 = load i32, i32* %9, align 4
  %21 = sext i32 %20 to i64
  %22 = getelementptr inbounds i32, i32* %19, i64 %21
  %23 = load i32, i32* %22, align 4
  %24 = call i32 (i8*, ...) @printf(i8* getelementptr inbounds ([4 x i8], [4 x i8]* @.str.1, i64 0, i64 0), i32 %23)
  br label %25

25:                                               ; preds = %18
  %26 = load i32, i32* %9, align 4
  %27 = add nsw i32 %26, 1
  store i32 %27, i32* %9, align 4
  br label %14

28:                                               ; preds = %14
  store i32 0, i32* %9, align 4
  br label %29

29:                                               ; preds = %40, %28
  %30 = load i32, i32* %9, align 4
  %31 = load i32, i32* %8, align 4
  %32 = icmp slt i32 %30, %31
  br i1 %32, label %33, label %43

33:                                               ; preds = %29
  %34 = load i32*, i32** %7, align 8
  %35 = load i32, i32* %9, align 4
  %36 = sext i32 %35 to i64
  %37 = getelementptr inbounds i32, i32* %34, i64 %36
  %38 = load i32, i32* %37, align 4
  %39 = call i32 (i8*, ...) @printf(i8* getelementptr inbounds ([4 x i8], [4 x i8]* @.str.1, i64 0, i64 0), i32 %38)
  br label %40

40:                                               ; preds = %33
  %41 = load i32, i32* %9, align 4
  %42 = add nsw i32 %41, 1
  store i32 %42, i32* %9, align 4
  br label %29

43:                                               ; preds = %29
  ret void
}

declare dso_local i32 @printf(i8*, ...) #1

; Function Attrs: noinline nounwind uwtable
define dso_local i32 @main(i32 %0, i8** %1) #0 {
  %3 = alloca i32, align 4
  %4 = alloca i32, align 4
  %5 = alloca i8**, align 8
  %6 = alloca i32, align 4
  %7 = alloca i32, align 4
  %8 = alloca i32, align 4
  %9 = alloca i32*, align 8
  %10 = alloca i32*, align 8
  store i32 0, i32* %3, align 4
  store i32 %0, i32* %4, align 4
  store i8** %1, i8*** %5, align 8
  %11 = call i32 (i8*, ...) @__isoc99_scanf(i8* getelementptr inbounds ([5 x i8], [5 x i8]* @.str.2, i64 0, i64 0), i32* %6, i32* %7)
  %12 = load i32, i32* %6, align 4
  %13 = sext i32 %12 to i64
  %14 = call noalias i8* @calloc(i64 %13, i64 4) #3
  %15 = bitcast i8* %14 to i32*
  store i32* %15, i32** %9, align 8
  %16 = load i32, i32* %7, align 4
  %17 = sext i32 %16 to i64
  %18 = call noalias i8* @calloc(i64 %17, i64 4) #3
  %19 = bitcast i8* %18 to i32*
  store i32* %19, i32** %10, align 8
  store i32 0, i32* %8, align 4
  br label %20

20:                                               ; preds = %30, %2
  %21 = load i32, i32* %8, align 4
  %22 = load i32, i32* %6, align 4
  %23 = icmp slt i32 %21, %22
  br i1 %23, label %24, label %33

24:                                               ; preds = %20
  %25 = load i32*, i32** %9, align 8
  %26 = load i32, i32* %8, align 4
  %27 = sext i32 %26 to i64
  %28 = getelementptr inbounds i32, i32* %25, i64 %27
  %29 = call i32 (i8*, ...) @__isoc99_scanf(i8* getelementptr inbounds ([3 x i8], [3 x i8]* @.str, i64 0, i64 0), i32* %28)
  br label %30

30:                                               ; preds = %24
  %31 = load i32, i32* %8, align 4
  %32 = add nsw i32 %31, 1
  store i32 %32, i32* %8, align 4
  br label %20

33:                                               ; preds = %20
  store i32 0, i32* %8, align 4
  br label %34

34:                                               ; preds = %44, %33
  %35 = load i32, i32* %8, align 4
  %36 = load i32, i32* %7, align 4
  %37 = icmp slt i32 %35, %36
  br i1 %37, label %38, label %47

38:                                               ; preds = %34
  %39 = load i32*, i32** %10, align 8
  %40 = load i32, i32* %8, align 4
  %41 = sext i32 %40 to i64
  %42 = getelementptr inbounds i32, i32* %39, i64 %41
  %43 = call i32 (i8*, ...) @__isoc99_scanf(i8* getelementptr inbounds ([3 x i8], [3 x i8]* @.str, i64 0, i64 0), i32* %42)
  br label %44

44:                                               ; preds = %38
  %45 = load i32, i32* %8, align 4
  %46 = add nsw i32 %45, 1
  store i32 %46, i32* %8, align 4
  br label %34

47:                                               ; preds = %34
  %48 = load i32*, i32** %9, align 8
  %49 = load i32, i32* %6, align 4
  call void @mysort(i32* %48, i32 %49)
  %50 = load i32*, i32** %10, align 8
  %51 = load i32, i32* %7, align 4
  call void @mysort(i32* %50, i32 %51)
  %52 = load i32*, i32** %9, align 8
  %53 = load i32, i32* %6, align 4
  %54 = load i32*, i32** %10, align 8
  %55 = load i32, i32* %7, align 4
  call void @merge(i32* %52, i32 %53, i32* %54, i32 %55)
  %56 = load i32*, i32** %9, align 8
  %57 = bitcast i32* %56 to i8*
  call void @free(i8* %57) #3
  %58 = load i32*, i32** %10, align 8
  %59 = bitcast i32* %58 to i8*
  call void @free(i8* %59) #3
  ret i32 0
}

declare dso_local i32 @__isoc99_scanf(i8*, ...) #1

; Function Attrs: nounwind
declare dso_local noalias i8* @calloc(i64, i64) #2

; Function Attrs: nounwind
declare dso_local void @free(i8*) #2


!llvm.module.flags = !{!0}
!llvm.ident = !{!1}

!0 = !{i32 1, !"wchar_size", i32 4}
!1 = !{!"clang version 10.0.0-4ubuntu1 "}
